target datalayout = "e-m:e-p270:32:32-p271:32:32-p272:64:64-i64:64-i128:128-f80:128-n8:16:32:64-S128"
target triple = "x86_64-pc-linux-gnu"

%"class.Ipopt::TNLPAdapter" = type { %"class.Ipopt::NLP.base", %"class.Ipopt::SmartPtr", %"class.Ipopt::SmartPtr.0", %"class.Ipopt::SmartPtr.1", double, double, i32, double, i32, double, double, i8, i32, i8, i32, i32, i32, i32, double, double, i8, double, i32, i32, i32, i32, i32, i32, i32, i32, i32, i32, %"class.Ipopt::SmartPtr.2", %"class.Ipopt::SmartPtr.2", %"class.Ipopt::SmartPtr.2", %"class.Ipopt::SmartPtr.2", %"class.Ipopt::SmartPtr.3", %"class.Ipopt::SmartPtr.2", %"class.Ipopt::SmartPtr.3", %"class.Ipopt::SmartPtr.2", %"class.Ipopt::SmartPtr.3", %"class.Ipopt::SmartPtr.2", %"class.Ipopt::SmartPtr.3", %"class.Ipopt::SmartPtr.3", %"class.Ipopt::SmartPtr.3", %"class.Ipopt::SmartPtr.4", ptr, ptr, ptr, ptr, ptr, i32, i32, i32, i32, i32, %"class.Ipopt::SmartPtr.5", %"class.Ipopt::SmartPtr.6", %"class.Ipopt::SmartPtr.5", %"class.Ipopt::SmartPtr.6", %"class.Ipopt::SmartPtr.5", %"class.Ipopt::SmartPtr.6", %"class.Ipopt::SmartPtr.6", %"class.Ipopt::SmartPtr.5", %"class.Ipopt::SmartPtr.6", %"class.Ipopt::SmartPtr.5", ptr, ptr, ptr, %"class.std::vector", %"class.std::vector", %"class.std::vector", i32, ptr, ptr, ptr, ptr, ptr }
%"class.Ipopt::NLP.base" = type { %"class.Ipopt::ReferencedObject.base" }
%"class.Ipopt::ReferencedObject.base" = type <{ ptr, i32 }>
%"class.Ipopt::SmartPtr" = type { ptr }
%"class.Ipopt::SmartPtr.0" = type { ptr }
%"class.Ipopt::SmartPtr.1" = type { ptr }
%"class.Ipopt::SmartPtr.2" = type { ptr }
%"class.Ipopt::SmartPtr.3" = type { ptr }
%"class.Ipopt::SmartPtr.4" = type { ptr }
%"class.Ipopt::SmartPtr.6" = type { ptr }
%"class.Ipopt::SmartPtr.5" = type { ptr }
%"class.std::vector" = type { %"struct.std::_Vector_base" }
%"struct.std::_Vector_base" = type { %"struct.std::_Vector_base<int, std::allocator<int>>::_Vector_impl" }
%"struct.std::_Vector_base<int, std::allocator<int>>::_Vector_impl" = type { %"struct.std::_Vector_base<int, std::allocator<int>>::_Vector_impl_data" }
%"struct.std::_Vector_base<int, std::allocator<int>>::_Vector_impl_data" = type { ptr, ptr, ptr }

; Function Attrs: mustprogress nounwind uwtable
define linkonce_odr noundef ptr @_ZNK5Ipopt8SmartPtrINS_4TNLPEEptEv(ptr noundef nonnull align 8 dereferenceable(8) %0) #5 comdat align 2 {
  %2 = alloca ptr, align 8
  store ptr %0, ptr %2, align 8, !tbaa !8
  %3 = load ptr, ptr %2, align 8
  %4 = getelementptr inbounds nuw %"class.Ipopt::SmartPtr", ptr %3, i32 0, i32 0
  %5 = load ptr, ptr %4, align 8, !tbaa !68
  ret ptr %5
}

; Function Attrs: mustprogress uwtable
define noundef zeroext i1 @_ZN5Ipopt11TNLPAdapter15internal_eval_gEb(ptr noundef nonnull align 8 dereferenceable(600) %0, i1 noundef zeroext %1) #4 align 2 {
  %3 = alloca i1, align 1
  %4 = alloca ptr, align 8
  %5 = alloca i8, align 1
  %6 = alloca i8, align 1
  store ptr %0, ptr %4, align 8, !tbaa !3
  %7 = zext i1 %1 to i8
  store i8 %7, ptr %5, align 1, !tbaa !133
  %8 = load ptr, ptr %4, align 8
  %9 = getelementptr inbounds nuw %"class.Ipopt::TNLPAdapter", ptr %8, i32 0, i32 54
  %10 = load i32, ptr %9, align 4, !tbaa !56
  %11 = getelementptr inbounds nuw %"class.Ipopt::TNLPAdapter", ptr %8, i32 0, i32 51
  %12 = load i32, ptr %11, align 8, !tbaa !53
  %13 = icmp eq i32 %10, %12
  br i1 %13, label %14, label %15

14:                                               ; preds = %2
  store i1 true, ptr %3, align 1
  br label %43

15:                                               ; preds = %2
  %16 = getelementptr inbounds nuw %"class.Ipopt::TNLPAdapter", ptr %8, i32 0, i32 51
  %17 = load i32, ptr %16, align 8, !tbaa !53
  %18 = getelementptr inbounds nuw %"class.Ipopt::TNLPAdapter", ptr %8, i32 0, i32 54
  store i32 %17, ptr %18, align 4, !tbaa !56
  call void @llvm.lifetime.start.p0(i64 1, ptr %6) #3
  %19 = getelementptr inbounds nuw %"class.Ipopt::TNLPAdapter", ptr %8, i32 0, i32 1
  %20 = call noundef ptr @_ZNK5Ipopt8SmartPtrINS_4TNLPEEptEv(ptr noundef nonnull align 8 dereferenceable(8) %19)
  %21 = getelementptr inbounds nuw %"class.Ipopt::TNLPAdapter", ptr %8, i32 0, i32 22
  %22 = load i32, ptr %21, align 8, !tbaa !138
  %23 = getelementptr inbounds nuw %"class.Ipopt::TNLPAdapter", ptr %8, i32 0, i32 46
  %24 = load ptr, ptr %23, align 8, !tbaa !14
  %25 = load i8, ptr %5, align 1, !tbaa !133, !range !134, !noundef !135
  %26 = trunc i8 %25 to i1
  %27 = getelementptr inbounds nuw %"class.Ipopt::TNLPAdapter", ptr %8, i32 0, i32 23
  %28 = load i32, ptr %27, align 4, !tbaa !139
  %29 = getelementptr inbounds nuw %"class.Ipopt::TNLPAdapter", ptr %8, i32 0, i32 48
  %30 = load ptr, ptr %29, align 8, !tbaa !50
  %31 = load ptr, ptr %20, align 8, !tbaa !12
  %32 = getelementptr inbounds ptr, ptr %31, i64 12
  %33 = load ptr, ptr %32, align 8
  %34 = call noundef zeroext i1 %33(ptr noundef nonnull align 8 dereferenceable(12) %20, i32 noundef %22, ptr noundef %24, i1 noundef zeroext %26, i32 noundef %28, ptr noundef %30)
  %35 = zext i1 %34 to i8
  store i8 %35, ptr %6, align 1, !tbaa !133
  %36 = load i8, ptr %6, align 1, !tbaa !133, !range !134, !noundef !135
  %37 = trunc i8 %36 to i1
  br i1 %37, label %40, label %38

38:                                               ; preds = %15
  %39 = getelementptr inbounds nuw %"class.Ipopt::TNLPAdapter", ptr %8, i32 0, i32 55
  store i32 0, ptr %39, align 8, !tbaa !57
  br label %40

40:                                               ; preds = %38, %15
  %41 = load i8, ptr %6, align 1, !tbaa !133, !range !134, !noundef !135
  %42 = trunc i8 %41 to i1
  store i1 %42, ptr %3, align 1
  call void @llvm.lifetime.end.p0(i64 1, ptr %6) #3
  br label %43

43:                                               ; preds = %40, %14
  %44 = load i1, ptr %3, align 1
  ret i1 %44
}