; Function Attrs: mustprogress uwtable
define noundef zeroext i1 @_ZN5Ipopt11TNLPAdapter15internal_eval_gEb(ptr noundef nonnull align 8 captures(none) dereferenceable(600) %0, i1 noundef zeroext %1) local_unnamed_addr #3 align 2 {
  %3 = getelementptr inbounds nuw i8, ptr %0, i64 364
  %4 = load i32, ptr %3, align 4, !tbaa !280
  %5 = getelementptr inbounds nuw i8, ptr %0, i64 352
  %6 = load i32, ptr %5, align 8, !tbaa !276
  %7 = icmp eq i32 %4, %6
  br i1 %7, label %25, label %8

8:                                                ; preds = %2
  store i32 %6, ptr %3, align 4, !tbaa !280
  %9 = getelementptr inbounds nuw i8, ptr %0, i64 16
  %10 = load ptr, ptr %9, align 8, !tbaa !10
  %11 = getelementptr inbounds nuw i8, ptr %0, i64 160
  %12 = load i32, ptr %11, align 8, !tbaa !109
  %13 = getelementptr inbounds nuw i8, ptr %0, i64 312
  %14 = load ptr, ptr %13, align 8, !tbaa !48
  %15 = getelementptr inbounds nuw i8, ptr %0, i64 164
  %16 = load i32, ptr %15, align 4, !tbaa !110
  %17 = getelementptr inbounds nuw i8, ptr %0, i64 328
  %18 = load ptr, ptr %17, align 8, !tbaa !64
  %19 = load ptr, ptr %10, align 8, !tbaa !8
  %20 = getelementptr inbounds nuw i8, ptr %19, i64 96
  %21 = load ptr, ptr %20, align 8
  %22 = tail call noundef zeroext i1 %21(ptr noundef nonnull align 8 dereferenceable(12) %10, i32 noundef %12, ptr noundef %14, i1 noundef zeroext %1, i32 noundef %16, ptr noundef %18)
  br i1 %22, label %25, label %23

23:                                               ; preds = %8
  %24 = getelementptr inbounds nuw i8, ptr %0, i64 368
  store i32 0, ptr %24, align 8, !tbaa !281
  br label %25

25:                                               ; preds = %8, %23, %2
  %.0 = phi i1 [ true, %2 ], [ false, %23 ], [ true, %8 ]
  ret i1 %.0
}